target datalayout = "e-m:e-p270:32:32-p271:32:32-p272:64:64-i64:64-i128:128-f80:128-n8:16:32:64-S128"
target triple = "x86_64-pc-linux-gnu"

%struct.tuplehash_hash = type { i64, i32, i32, i32, ptr, ptr, ptr }
%struct.TupleHashEntryData = type { ptr, ptr, i32, i32 }
%struct.tuplehash_iterator = type { i32, i32, i8 }

; Function Attrs: nounwind uwtable
define dso_local void @tuplehash_start_iterate(ptr noundef %0, ptr noundef %1) #0 {
  %3 = alloca ptr, align 8
  %4 = alloca ptr, align 8
  %5 = alloca i64, align 8
  %6 = alloca i32, align 4
  %7 = alloca i32, align 4
  %8 = alloca ptr, align 8
  store ptr %0, ptr %3, align 8
  store ptr %1, ptr %4, align 8
  call void @llvm.lifetime.start.p0(i64 8, ptr %5) #9
  store i64 -1, ptr %5, align 8
  call void @llvm.lifetime.start.p0(i64 4, ptr %6) #9
  store i32 0, ptr %6, align 4
  br label %9

9:                                                ; preds = %35, %2
  %10 = load i32, ptr %6, align 4
  %11 = zext i32 %10 to i64
  %12 = load ptr, ptr %3, align 8
  %13 = getelementptr inbounds nuw %struct.tuplehash_hash, ptr %12, i32 0, i32 0
  %14 = load i64, ptr %13, align 8
  %15 = icmp ult i64 %11, %14
  br i1 %15, label %17, label %16

16:                                               ; preds = %9
  store i32 2, ptr %7, align 4
  br label %38

17:                                               ; preds = %9
  call void @llvm.lifetime.start.p0(i64 8, ptr %8) #9
  %18 = load ptr, ptr %3, align 8
  %19 = getelementptr inbounds nuw %struct.tuplehash_hash, ptr %18, i32 0, i32 4
  %20 = load ptr, ptr %19, align 8
  %21 = load i32, ptr %6, align 4
  %22 = zext i32 %21 to i64
  %23 = getelementptr inbounds nuw %struct.TupleHashEntryData, ptr %20, i64 %22
  store ptr %23, ptr %8, align 8
  %24 = load ptr, ptr %8, align 8
  %25 = getelementptr inbounds nuw %struct.TupleHashEntryData, ptr %24, i32 0, i32 2
  %26 = load i32, ptr %25, align 8
  %27 = icmp ne i32 %26, 1
  br i1 %27, label %28, label %31

28:                                               ; preds = %17
  %29 = load i32, ptr %6, align 4
  %30 = zext i32 %29 to i64
  store i64 %30, ptr %5, align 8
  store i32 2, ptr %7, align 4
  br label %32

31:                                               ; preds = %17
  store i32 0, ptr %7, align 4
  br label %32

32:                                               ; preds = %31, %28
  call void @llvm.lifetime.end.p0(i64 8, ptr %8) #9
  %33 = load i32, ptr %7, align 4
  switch i32 %33, label %38 [
    i32 0, label %34
  ]

34:                                               ; preds = %32
  br label %35

35:                                               ; preds = %34
  %36 = load i32, ptr %6, align 4
  %37 = add i32 %36, 1
  store i32 %37, ptr %6, align 4
  br label %9, !llvm.loop !8

38:                                               ; preds = %32, %16
  call void @llvm.lifetime.end.p0(i64 4, ptr %6) #9
  br label %39

39:                                               ; preds = %38
  %40 = load i64, ptr %5, align 8
  %41 = trunc i64 %40 to i32
  %42 = load ptr, ptr %4, align 8
  %43 = getelementptr inbounds nuw %struct.tuplehash_iterator, ptr %42, i32 0, i32 0
  store i32 %41, ptr %43, align 4
  %44 = load ptr, ptr %4, align 8
  %45 = getelementptr inbounds nuw %struct.tuplehash_iterator, ptr %44, i32 0, i32 0
  %46 = load i32, ptr %45, align 4
  %47 = load ptr, ptr %4, align 8
  %48 = getelementptr inbounds nuw %struct.tuplehash_iterator, ptr %47, i32 0, i32 1
  store i32 %46, ptr %48, align 4
  %49 = load ptr, ptr %4, align 8
  %50 = getelementptr inbounds nuw %struct.tuplehash_iterator, ptr %49, i32 0, i32 2
  store i8 0, ptr %50, align 4
  call void @llvm.lifetime.end.p0(i64 8, ptr %5) #9
  ret void
}